target datalayout = "e-m:e-p270:32:32-p271:32:32-p272:64:64-i64:64-i128:128-f80:128-n8:16:32:64-S128"
target triple = "x86_64-pc-linux-gnu"

%struct.CountAudioDevicesData = type { i32, i32, ptr, i8 }

; Function Attrs: nounwind uwtable
define internal zeroext i1 @CountAudioDevices(ptr noundef %0, ptr noundef %1, ptr noundef %2, ptr noundef %3) #0 {
  %5 = alloca ptr, align 8
  %6 = alloca ptr, align 8
  %7 = alloca ptr, align 8
  %8 = alloca ptr, align 8
  %9 = alloca ptr, align 8
  %10 = alloca i32, align 4
  %11 = alloca i8, align 1
  %12 = alloca i8, align 1
  store ptr %0, ptr %5, align 8
  store ptr %1, ptr %6, align 8
  store ptr %2, ptr %7, align 8
  store ptr %3, ptr %8, align 8
  call void @llvm.lifetime.start.p0(i64 8, ptr %9) #6
  %13 = load ptr, ptr %5, align 8
  store ptr %13, ptr %9, align 8
  call void @llvm.lifetime.start.p0(i64 4, ptr %10) #6
  %14 = load ptr, ptr %7, align 8
  %15 = ptrtoint ptr %14 to i64
  %16 = trunc i64 %15 to i32
  store i32 %16, ptr %10, align 4
  call void @llvm.lifetime.start.p0(i64 1, ptr %11) #6
  %17 = load i32, ptr %10, align 4
  %18 = and i32 %17, 1
  %19 = icmp ne i32 %18, 0
  %20 = xor i1 %19, true
  %21 = zext i1 %20 to i8
  store i8 %21, ptr %11, align 1
  call void @llvm.lifetime.start.p0(i64 1, ptr %12) #6
  %22 = load i32, ptr %10, align 4
  %23 = and i32 %22, 2
  %24 = icmp ne i32 %23, 0
  %25 = xor i1 %24, true
  %26 = xor i1 %25, true
  %27 = zext i1 %26 to i8
  store i8 %27, ptr %12, align 1
  %28 = load i8, ptr %12, align 1, !range !5, !noundef !6
  %29 = trunc i8 %28 to i1
  br i1 %29, label %30, label %54

30:                                               ; preds = %4
  %31 = load i8, ptr %11, align 1, !range !5, !noundef !6
  %32 = trunc i8 %31 to i1
  %33 = zext i1 %32 to i32
  %34 = load ptr, ptr %9, align 8
  %35 = getelementptr inbounds nuw %struct.CountAudioDevicesData, ptr %34, i32 0, i32 3
  %36 = load i8, ptr %35, align 8, !range !5, !noundef !6
  %37 = trunc i8 %36 to i1
  %38 = zext i1 %37 to i32
  %39 = icmp eq i32 %33, %38
  br i1 %39, label %40, label %54

40:                                               ; preds = %30
  br label %41

41:                                               ; preds = %40
  br label %42

42:                                               ; preds = %41
  br label %43

43:                                               ; preds = %42
  %44 = load i32, ptr %10, align 4
  %45 = load ptr, ptr %9, align 8
  %46 = getelementptr inbounds nuw %struct.CountAudioDevicesData, ptr %45, i32 0, i32 2
  %47 = load ptr, ptr %46, align 8
  %48 = load ptr, ptr %9, align 8
  %49 = getelementptr inbounds nuw %struct.CountAudioDevicesData, ptr %48, i32 0, i32 0
  %50 = load i32, ptr %49, align 8
  %51 = add nsw i32 %50, 1
  store i32 %51, ptr %49, align 8
  %52 = sext i32 %50 to i64
  %53 = getelementptr inbounds i32, ptr %47, i64 %52
  store i32 %44, ptr %53, align 4
  br label %54

54:                                               ; preds = %43, %30, %4
  call void @llvm.lifetime.end.p0(i64 1, ptr %12) #6
  call void @llvm.lifetime.end.p0(i64 1, ptr %11) #6
  call void @llvm.lifetime.end.p0(i64 4, ptr %10) #6
  call void @llvm.lifetime.end.p0(i64 8, ptr %9) #6
  ret i1 true
}