; Function Attrs: mustprogress nofree norecurse nosync nounwind willreturn memory(write, argmem: readwrite, inaccessiblemem: none) uwtable
define internal noundef zeroext i1 @CountAudioDevices(ptr noundef captures(none) %0, ptr readnone captures(none) %1, ptr noundef %2, ptr readnone captures(none) %3) #12 {
  %5 = ptrtoint ptr %2 to i64
  %6 = trunc i64 %5 to i32
  %7 = and i32 %6, 2
  %.not9 = icmp eq i32 %7, 0
  br i1 %.not9, label %20, label %8

8:                                                ; preds = %4
  %9 = and i32 %6, 1
  %10 = getelementptr inbounds nuw i8, ptr %0, i64 16
  %11 = load i8, ptr %10, align 8, !range !6, !noundef !7
  %12 = zext nneg i8 %11 to i32
  %.not = icmp eq i32 %9, %12
  br i1 %.not, label %20, label %13

13:                                               ; preds = %8
  %14 = getelementptr inbounds nuw i8, ptr %0, i64 8
  %15 = load ptr, ptr %14, align 8
  %16 = load i32, ptr %0, align 8
  %17 = add nsw i32 %16, 1
  store i32 %17, ptr %0, align 8
  %18 = sext i32 %16 to i64
  %19 = getelementptr inbounds i32, ptr %15, i64 %18
  store i32 %6, ptr %19, align 4
  br label %20

20:                                               ; preds = %13, %8, %4
  ret i1 true
}